target datalayout = "e-m:e-p270:32:32-p271:32:32-p272:64:64-i64:64-i128:128-f80:128-n8:16:32:64-S128"
target triple = "x86_64-unknown-linux-gnu"

%struct.target_sigset_t = type { [1 x i64] }
%struct.__sigset_t = type { [16 x i64] }
%struct.CPUState = type { %struct.DeviceState, ptr, i32, i32, ptr, i32, i8, i8, ptr, i8, i8, i8, i8, i8, i8, i8, i8, i32, i32, i32, i32, i64, i64, i64, [1 x %struct.__jmp_buf_tag], %struct.QemuMutex, %struct.anon, ptr, i32, ptr, ptr, ptr, ptr, i32, i32, %union.anon, %union.anon.0, %union.anon.1, ptr, ptr, i64, i32, ptr, ptr, ptr, i32, i64, i32, %struct.QemuLockCnt, [1 x i64], ptr, i32, i32, i32, i32, i32, ptr, i8, i8, i64, i8, i8, ptr, [8 x i8], [0 x i8], %struct.CPUNegativeOffsetState }
%struct.DeviceState = type { %struct.Object, ptr, ptr, i8, i8, i64, ptr, i32, i8, ptr, %struct.NamedGPIOListHead, %struct.NamedClockListHead, %struct.BusStateHead, i32, i32, i32, %struct.ResettableState, ptr, %struct.MemReentrancyGuard }
%struct.Object = type { ptr, ptr, ptr, i32, ptr }
%struct.NamedGPIOListHead = type { ptr }
%struct.NamedClockListHead = type { ptr }
%struct.BusStateHead = type { ptr }
%struct.ResettableState = type { i32, i8, i8 }
%struct.MemReentrancyGuard = type { i8 }
%struct.__jmp_buf_tag = type { [8 x i64], i32, %struct.__sigset_t }
%struct.QemuMutex = type { %union.pthread_mutex_t, i8 }
%union.pthread_mutex_t = type { %struct.__pthread_mutex_s }
%struct.__pthread_mutex_s = type { i32, i32, i32, i32, i32, i16, i16, %struct.__pthread_internal_list }
%struct.__pthread_internal_list = type { ptr, ptr }
%struct.anon = type { ptr, ptr }
%union.anon = type { %struct.QTailQLink }
%struct.QTailQLink = type { ptr, ptr }
%union.anon.0 = type { %struct.QTailQLink }
%union.anon.1 = type { %struct.QTailQLink }
%struct.QemuLockCnt = type { i32 }
%struct.CPUNegativeOffsetState = type { %struct.CPUTLB, %union.IcountDecr, i8, [11 x i8] }
%struct.CPUTLB = type { %struct.CPUTLBCommon, [16 x %struct.CPUTLBDesc], [16 x %struct.CPUTLBDescFast] }
%struct.CPUTLBCommon = type { %struct.QemuSpin, i16, i64, i64, i64 }
%struct.QemuSpin = type { i32 }
%struct.CPUTLBDesc = type { i64, i64, i64, i64, i64, i64, [8 x %union.CPUTLBEntry], [8 x %struct.CPUTLBEntryFull], ptr }
%union.CPUTLBEntry = type { %struct.anon.2 }
%struct.anon.2 = type { i64, i64, i64, i64 }
%struct.CPUTLBEntryFull = type { i64, i64, %struct.MemTxAttrs, i8, i8, [3 x i8], %union.anon.3 }
%struct.MemTxAttrs = type { i32 }
%union.anon.3 = type { %struct.anon.4 }
%struct.anon.4 = type { i8, i8, i8 }
%struct.CPUTLBDescFast = type { i64, ptr }
%union.IcountDecr = type { i32 }
%struct.TaskState = type { i32, i32, i64, i64, i64, i64, i32, ptr, ptr, %struct.emulated_sigtable, [64 x %struct.emulated_sigtable], %struct.__sigset_t, %struct.__sigset_t, i32, i32, %struct.target_sigaltstack, i64 }
%struct.emulated_sigtable = type { i32, %struct.target_siginfo }
%struct.target_siginfo = type { i32, i32, i32, %union.anon.6 }
%union.anon.6 = type { %struct.anon.10, [80 x i8] }
%struct.anon.10 = type { i32, i32, i32, i64, i64 }
%struct.target_sigaltstack = type { i64, i32, i64 }

@target_to_host_signal_table = internal global [65 x i8] zeroinitializer, align 16
@thread_cpu = external thread_local global ptr, align 8

; Function Attrs: nounwind sspstrong uwtable
define internal i32 @target_sigismember(ptr noundef %set, i32 noundef %signum) #0 {
entry:
  %set.addr = alloca ptr, align 8
  %signum.addr = alloca i32, align 4
  %mask = alloca i64, align 8
  store ptr %set, ptr %set.addr, align 8
  store i32 %signum, ptr %signum.addr, align 4
  %0 = load i32, ptr %signum.addr, align 4
  %dec = add i32 %0, -1
  store i32 %dec, ptr %signum.addr, align 4
  %1 = load i32, ptr %signum.addr, align 4
  %rem = srem i32 %1, 64
  %sh_prom = zext i32 %rem to i64
  %shl = shl i64 1, %sh_prom
  store i64 %shl, ptr %mask, align 8
  %2 = load ptr, ptr %set.addr, align 8
  %sig = getelementptr inbounds %struct.target_sigset_t, ptr %2, i32 0, i32 0
  %3 = load i32, ptr %signum.addr, align 4
  %div = sdiv i32 %3, 64
  %idxprom = sext i32 %div to i64
  %arrayidx = getelementptr [1 x i64], ptr %sig, i64 0, i64 %idxprom
  %4 = load i64, ptr %arrayidx, align 8
  %5 = load i64, ptr %mask, align 8
  %and = and i64 %4, %5
  %cmp = icmp ne i64 %and, 0
  %conv = zext i1 %cmp to i32
  ret i32 %conv
}

; Function Attrs: nounwind sspstrong uwtable
define dso_local i32 @target_to_host_signal(i32 noundef %sig) #0 {
entry:
  %retval = alloca i32, align 4
  %sig.addr = alloca i32, align 4
  store i32 %sig, ptr %sig.addr, align 4
  %0 = load i32, ptr %sig.addr, align 4
  %cmp = icmp slt i32 %0, 1
  br i1 %cmp, label %if.then, label %if.end

if.then:                                          ; preds = %entry
  %1 = load i32, ptr %sig.addr, align 4
  store i32 %1, ptr %retval, align 4
  br label %return

if.end:                                           ; preds = %entry
  %2 = load i32, ptr %sig.addr, align 4
  %cmp1 = icmp sgt i32 %2, 64
  br i1 %cmp1, label %if.then2, label %if.end3

if.then2:                                         ; preds = %if.end
  store i32 65, ptr %retval, align 4
  br label %return

if.end3:                                          ; preds = %if.end
  %3 = load i32, ptr %sig.addr, align 4
  %idxprom = sext i32 %3 to i64
  %arrayidx = getelementptr [65 x i8], ptr @target_to_host_signal_table, i64 0, i64 %idxprom
  %4 = load i8, ptr %arrayidx, align 1
  %conv = zext i8 %4 to i32
  store i32 %conv, ptr %retval, align 4
  br label %return

return:                                           ; preds = %if.end3, %if.then2, %if.then
  %5 = load i32, ptr %retval, align 4
  ret i32 %5
}

; Function Attrs: nounwind sspstrong uwtable
define internal i64 @tswap64(i64 noundef %s) #0 {
entry:
  %s.addr = alloca i64, align 8
  store i64 %s, ptr %s.addr, align 8
  %0 = load i64, ptr %s.addr, align 8
  ret i64 %0
}

; Function Attrs: nounwind sspstrong uwtable
define dso_local void @target_to_host_sigset_internal(ptr noundef %d, ptr noundef %s) #0 {
entry:
  %d.addr = alloca ptr, align 8
  %s.addr = alloca ptr, align 8
  %host_sig = alloca i32, align 4
  %target_sig = alloca i32, align 4
  store ptr %d, ptr %d.addr, align 8
  store ptr %s, ptr %s.addr, align 8
  %0 = load ptr, ptr %d.addr, align 8
  %call = call i32 @sigemptyset(ptr noundef %0) #9
  store i32 1, ptr %target_sig, align 4
  br label %for.cond

for.cond:                                         ; preds = %for.inc, %entry
  %1 = load i32, ptr %target_sig, align 4
  %cmp = icmp sle i32 %1, 64
  br i1 %cmp, label %for.body, label %for.end

for.body:                                         ; preds = %for.cond
  %2 = load i32, ptr %target_sig, align 4
  %call1 = call i32 @target_to_host_signal(i32 noundef %2)
  store i32 %call1, ptr %host_sig, align 4
  %3 = load i32, ptr %host_sig, align 4
  %cmp2 = icmp slt i32 %3, 1
  br i1 %cmp2, label %if.then, label %lor.lhs.false

lor.lhs.false:                                    ; preds = %for.body
  %4 = load i32, ptr %host_sig, align 4
  %cmp3 = icmp sge i32 %4, 65
  br i1 %cmp3, label %if.then, label %if.end

if.then:                                          ; preds = %lor.lhs.false, %for.body
  br label %for.inc

if.end:                                           ; preds = %lor.lhs.false
  %5 = load ptr, ptr %s.addr, align 8
  %6 = load i32, ptr %target_sig, align 4
  %call4 = call i32 @target_sigismember(ptr noundef %5, i32 noundef %6)
  %tobool = icmp ne i32 %call4, 0
  br i1 %tobool, label %if.then5, label %if.end7

if.then5:                                         ; preds = %if.end
  %7 = load ptr, ptr %d.addr, align 8
  %8 = load i32, ptr %host_sig, align 4
  %call6 = call i32 @sigaddset(ptr noundef %7, i32 noundef %8) #9
  br label %if.end7

if.end7:                                          ; preds = %if.then5, %if.end
  br label %for.inc

for.inc:                                          ; preds = %if.end7, %if.then
  %9 = load i32, ptr %target_sig, align 4
  %inc = add i32 %9, 1
  store i32 %inc, ptr %target_sig, align 4
  br label %for.cond, !llvm.loop !8

for.end:                                          ; preds = %for.cond
  ret void
}

; Function Attrs: nounwind sspstrong uwtable
define internal i64 @tswapal(i64 noundef %v) #0 {
entry:
  %v.addr = alloca i64, align 8
  store i64 %v, ptr %v.addr, align 8
  %0 = load i64, ptr %v.addr, align 8
  %call = call i64 @tswap64(i64 noundef %0)
  ret i64 %call
}

; Function Attrs: nounwind sspstrong uwtable
define internal void @unlock_user(ptr noundef %host_ptr, i64 noundef %guest_addr, i64 noundef %len) #0 {
entry:
  %host_ptr.addr = alloca ptr, align 8
  %guest_addr.addr = alloca i64, align 8
  %len.addr = alloca i64, align 8
  store ptr %host_ptr, ptr %host_ptr.addr, align 8
  store i64 %guest_addr, ptr %guest_addr.addr, align 8
  store i64 %len, ptr %len.addr, align 8
  ret void
}

; Function Attrs: nounwind sspstrong uwtable
define dso_local void @target_to_host_sigset(ptr noundef %d, ptr noundef %s) #0 {
entry:
  %d.addr = alloca ptr, align 8
  %s.addr = alloca ptr, align 8
  %s1 = alloca %struct.target_sigset_t, align 8
  %i = alloca i32, align 4
  store ptr %d, ptr %d.addr, align 8
  store ptr %s, ptr %s.addr, align 8
  store i32 0, ptr %i, align 4
  br label %for.cond

for.cond:                                         ; preds = %for.inc, %entry
  %0 = load i32, ptr %i, align 4
  %cmp = icmp slt i32 %0, 1
  br i1 %cmp, label %for.body, label %for.end

for.body:                                         ; preds = %for.cond
  %1 = load ptr, ptr %s.addr, align 8
  %sig = getelementptr inbounds %struct.target_sigset_t, ptr %1, i32 0, i32 0
  %2 = load i32, ptr %i, align 4
  %idxprom = sext i32 %2 to i64
  %arrayidx = getelementptr [1 x i64], ptr %sig, i64 0, i64 %idxprom
  %3 = load i64, ptr %arrayidx, align 8
  %call = call i64 @tswapal(i64 noundef %3)
  %sig1 = getelementptr inbounds %struct.target_sigset_t, ptr %s1, i32 0, i32 0
  %4 = load i32, ptr %i, align 4
  %idxprom2 = sext i32 %4 to i64
  %arrayidx3 = getelementptr [1 x i64], ptr %sig1, i64 0, i64 %idxprom2
  store i64 %call, ptr %arrayidx3, align 8
  br label %for.inc

for.inc:                                          ; preds = %for.body
  %5 = load i32, ptr %i, align 4
  %inc = add i32 %5, 1
  store i32 %inc, ptr %i, align 4
  br label %for.cond, !llvm.loop !9

for.end:                                          ; preds = %for.cond
  %6 = load ptr, ptr %d.addr, align 8
  call void @target_to_host_sigset_internal(ptr noundef %6, ptr noundef %s1)
  ret void
}

; Function Attrs: nounwind sspstrong uwtable
define dso_local i32 @process_sigsuspend_mask(ptr noundef %pset, i64 noundef %sigset, i64 noundef %sigsize) #0 {
entry:
  %retval = alloca i32, align 4
  %pset.addr = alloca ptr, align 8
  %sigset.addr = alloca i64, align 8
  %sigsize.addr = alloca i64, align 8
  %ts = alloca ptr, align 8
  %host_set = alloca ptr, align 8
  %target_sigset = alloca ptr, align 8
  store ptr %pset, ptr %pset.addr, align 8
  store i64 %sigset, ptr %sigset.addr, align 8
  store i64 %sigsize, ptr %sigsize.addr, align 8
  %0 = call align 8 ptr @llvm.threadlocal.address.p0(ptr align 8 @thread_cpu)
  %1 = load ptr, ptr %0, align 8
  %opaque = getelementptr inbounds %struct.CPUState, ptr %1, i32 0, i32 39
  %2 = load ptr, ptr %opaque, align 16
  store ptr %2, ptr %ts, align 8
  %3 = load ptr, ptr %ts, align 8
  %sigsuspend_mask = getelementptr inbounds %struct.TaskState, ptr %3, i32 0, i32 12
  store ptr %sigsuspend_mask, ptr %host_set, align 8
  %4 = load i64, ptr %sigsize.addr, align 8
  %cmp = icmp ne i64 %4, 8
  br i1 %cmp, label %if.then, label %if.end

if.then:                                          ; preds = %entry
  store i32 -22, ptr %retval, align 4
  br label %return

if.end:                                           ; preds = %entry
  %5 = load i64, ptr %sigset.addr, align 8
  %6 = load i64, ptr %sigsize.addr, align 8
  %call = call ptr @lock_user(i32 noundef 1, i64 noundef %5, i64 noundef %6, i1 noundef zeroext true)
  store ptr %call, ptr %target_sigset, align 8
  %7 = load ptr, ptr %target_sigset, align 8
  %tobool = icmp ne ptr %7, null
  br i1 %tobool, label %if.end2, label %if.then1

if.then1:                                         ; preds = %if.end
  store i32 -14, ptr %retval, align 4
  br label %return

if.end2:                                          ; preds = %if.end
  %8 = load ptr, ptr %host_set, align 8
  %9 = load ptr, ptr %target_sigset, align 8
  call void @target_to_host_sigset(ptr noundef %8, ptr noundef %9)
  %10 = load ptr, ptr %target_sigset, align 8
  %11 = load i64, ptr %sigset.addr, align 8
  call void @unlock_user(ptr noundef %10, i64 noundef %11, i64 noundef 0)
  %12 = load ptr, ptr %host_set, align 8
  %13 = load ptr, ptr %pset.addr, align 8
  store ptr %12, ptr %13, align 8
  store i32 0, ptr %retval, align 4
  br label %return

return:                                           ; preds = %if.end2, %if.then1, %if.then
  %14 = load i32, ptr %retval, align 4
  ret i32 %14
}