; Function Attrs: nounwind sspstrong uwtable
define dso_local range(i32 -22, 1) i32 @process_sigsuspend_mask(ptr noundef writeonly captures(none) %pset, i64 noundef %sigset, i64 noundef %sigsize) local_unnamed_addr #1 {
entry:
  %0 = tail call align 8 ptr @llvm.threadlocal.address.p0(ptr align 8 @thread_cpu)
  %1 = load ptr, ptr %0, align 8
  %opaque = getelementptr inbounds nuw i8, ptr %1, i64 624
  %2 = load ptr, ptr %opaque, align 16
  %sigsuspend_mask = getelementptr inbounds nuw i8, ptr %2, i64 9032
  %cmp.not = icmp eq i64 %sigsize, 8
  br i1 %cmp.not, label %if.end, label %return

if.end:                                           ; preds = %entry
  %call = tail call ptr @lock_user(i32 noundef 1, i64 noundef %sigset, i64 noundef 8, i1 noundef zeroext true) #16
  %tobool.not = icmp eq ptr %call, null
  br i1 %tobool.not, label %return, label %if.end2

if.end2:                                          ; preds = %if.end
  %3 = load i64, ptr %call, align 8
  %call.i.i = tail call i32 @sigemptyset(ptr noundef nonnull %sigsuspend_mask) #16
  br label %target_to_host_signal.exit.i.i

target_to_host_signal.exit.i.i:                   ; preds = %for.inc.i.i, %if.end2
  %indvars.iv.i.i = phi i64 [ 1, %if.end2 ], [ %indvars.iv.next.i.i, %for.inc.i.i ]
  %arrayidx.i.i.i = getelementptr [65 x i8], ptr @target_to_host_signal_table, i64 0, i64 %indvars.iv.i.i
  %4 = load i8, ptr %arrayidx.i.i.i, align 1
  %conv.i.i.i = zext i8 %4 to i32
  %5 = add nsw i32 %conv.i.i.i, -65
  %or.cond.i.i = icmp ult i32 %5, -64
  br i1 %or.cond.i.i, label %for.inc.i.i, label %if.end.i.i

if.end.i.i:                                       ; preds = %target_to_host_signal.exit.i.i
  %6 = add nsw i64 %indvars.iv.i.i, -1
  %7 = shl nuw i64 1, %6
  %8 = and i64 %7, %3
  %tobool.not.i.i = icmp eq i64 %8, 0
  br i1 %tobool.not.i.i, label %for.inc.i.i, label %if.then5.i.i

if.then5.i.i:                                     ; preds = %if.end.i.i
  %call6.i.i = tail call i32 @sigaddset(ptr noundef nonnull %sigsuspend_mask, i32 noundef %conv.i.i.i) #16
  br label %for.inc.i.i

for.inc.i.i:                                      ; preds = %if.then5.i.i, %if.end.i.i, %target_to_host_signal.exit.i.i
  %indvars.iv.next.i.i = add nuw nsw i64 %indvars.iv.i.i, 1
  %exitcond.not.i.i = icmp eq i64 %indvars.iv.next.i.i, 65
  br i1 %exitcond.not.i.i, label %target_to_host_sigset.exit, label %target_to_host_signal.exit.i.i, !llvm.loop !7

target_to_host_sigset.exit:                       ; preds = %for.inc.i.i
  store ptr %sigsuspend_mask, ptr %pset, align 8
  br label %return

return:                                           ; preds = %if.end, %entry, %target_to_host_sigset.exit
  %retval.0 = phi i32 [ 0, %target_to_host_sigset.exit ], [ -22, %entry ], [ -14, %if.end ]
  ret i32 %retval.0
}